target datalayout = "e-m:e-p270:32:32-p271:32:32-p272:64:64-i64:64-i128:128-f80:128-n8:16:32:64-S128"
target triple = "x86_64-pc-linux-gnu"

%class.OopIterateClosure = type { %class.OopClosure, ptr }
%class.OopClosure = type { ptr }
%class.BFSClosure = type <{ %class.BasicOopIterateClosure, ptr, ptr, ptr, ptr, i64, i64, i64, i64, i8, [7 x i8] }>
%class.BasicOopIterateClosure = type { %class.OopIterateClosure }
%struct.UnifiedOopRef = type { i64 }
%class.Edge = type { ptr, %struct.UnifiedOopRef }

; Function Attrs: mustprogress nounwind uwtable
define hidden void @_ZN10BFSClosure7processE13UnifiedOopRefP7oopDesc(ptr noundef nonnull align 8 dereferenceable(81) %0, i64 %1, ptr noundef %2) #1 align 2 {
  %4 = alloca %struct.UnifiedOopRef, align 8
  %5 = alloca ptr, align 8
  %6 = alloca ptr, align 8
  %7 = alloca %struct.UnifiedOopRef, align 8
  %8 = getelementptr inbounds %struct.UnifiedOopRef, ptr %4, i32 0, i32 0
  store i64 %1, ptr %8, align 8
  store ptr %0, ptr %5, align 8
  store ptr %2, ptr %6, align 8
  %9 = load ptr, ptr %5, align 8
  call void @llvm.memcpy.p0.p0.i64(ptr align 8 %7, ptr align 8 %4, i64 8, i1 false)
  %10 = load ptr, ptr %6, align 8
  %11 = getelementptr inbounds %struct.UnifiedOopRef, ptr %7, i32 0, i32 0
  %12 = load i64, ptr %11, align 8
  call void @_ZN10BFSClosure12closure_implE13UnifiedOopRefP7oopDesc(ptr noundef nonnull align 8 dereferenceable(81) %9, i64 %12, ptr noundef %10)
  ret void
}

; Function Attrs: mustprogress nounwind uwtable
define linkonce_odr hidden i64 @_ZNK4Edge9referenceEv(ptr noundef nonnull align 8 dereferenceable(16) %0) #1 comdat align 2 {
  %2 = alloca %struct.UnifiedOopRef, align 8
  %3 = alloca ptr, align 8
  store ptr %0, ptr %3, align 8
  %4 = load ptr, ptr %3, align 8
  %5 = getelementptr inbounds %class.Edge, ptr %4, i32 0, i32 1
  call void @llvm.memcpy.p0.p0.i64(ptr align 8 %2, ptr align 8 %5, i64 8, i1 false)
  %6 = getelementptr inbounds %struct.UnifiedOopRef, ptr %2, i32 0, i32 0
  %7 = load i64, ptr %6, align 8
  ret i64 %7
}

; Function Attrs: mustprogress nounwind uwtable
define hidden void @_ZN10BFSClosure16process_root_setEv(ptr noundef nonnull align 8 dereferenceable(81) %0) #1 align 2 {
  %2 = alloca ptr, align 8
  %3 = alloca i64, align 8
  %4 = alloca ptr, align 8
  %5 = alloca %struct.UnifiedOopRef, align 8
  store ptr %0, ptr %2, align 8
  %6 = load ptr, ptr %2, align 8
  %7 = getelementptr inbounds %class.BFSClosure, ptr %6, i32 0, i32 1
  %8 = load ptr, ptr %7, align 8
  %9 = call noundef i64 @_ZNK9EdgeQueue6bottomEv(ptr noundef nonnull align 8 dereferenceable(40) %8)
  store i64 %9, ptr %3, align 8
  br label %10

10:                                               ; preds = %28, %1
  %11 = load i64, ptr %3, align 8
  %12 = getelementptr inbounds %class.BFSClosure, ptr %6, i32 0, i32 1
  %13 = load ptr, ptr %12, align 8
  %14 = call noundef i64 @_ZNK9EdgeQueue3topEv(ptr noundef nonnull align 8 dereferenceable(40) %13)
  %15 = icmp ult i64 %11, %14
  br i1 %15, label %16, label %31

16:                                               ; preds = %10
  %17 = getelementptr inbounds %class.BFSClosure, ptr %6, i32 0, i32 1
  %18 = load ptr, ptr %17, align 8
  %19 = load i64, ptr %3, align 8
  %20 = call noundef ptr @_ZNK9EdgeQueue10element_atEm(ptr noundef nonnull align 8 dereferenceable(40) %18, i64 noundef %19)
  store ptr %20, ptr %4, align 8
  %21 = load ptr, ptr %4, align 8
  %22 = call i64 @_ZNK4Edge9referenceEv(ptr noundef nonnull align 8 dereferenceable(16) %21)
  %23 = getelementptr inbounds %struct.UnifiedOopRef, ptr %5, i32 0, i32 0
  store i64 %22, ptr %23, align 8
  %24 = load ptr, ptr %4, align 8
  %25 = call noundef ptr @_ZNK4Edge7pointeeEv(ptr noundef nonnull align 8 dereferenceable(16) %24)
  %26 = getelementptr inbounds %struct.UnifiedOopRef, ptr %5, i32 0, i32 0
  %27 = load i64, ptr %26, align 8
  call void @_ZN10BFSClosure7processE13UnifiedOopRefP7oopDesc(ptr noundef nonnull align 8 dereferenceable(81) %6, i64 %27, ptr noundef %25)
  br label %28

28:                                               ; preds = %16
  %29 = load i64, ptr %3, align 8
  %30 = add i64 %29, 1
  store i64 %30, ptr %3, align 8
  br label %10, !llvm.loop !6

31:                                               ; preds = %10
  ret void
}