; Function Attrs: mustprogress nounwind uwtable
define hidden void @_ZN10BFSClosure16process_root_setEv(ptr nocapture noundef nonnull align 8 dereferenceable(81) %0) local_unnamed_addr #1 align 2 {
  %2 = getelementptr inbounds i8, ptr %0, i64 16
  %3 = load ptr, ptr %2, align 8
  %4 = tail call noundef i64 @_ZNK9EdgeQueue6bottomEv(ptr noundef nonnull align 8 dereferenceable(40) %3) #12
  %5 = load ptr, ptr %2, align 8
  %6 = tail call noundef i64 @_ZNK9EdgeQueue3topEv(ptr noundef nonnull align 8 dereferenceable(40) %5) #12
  %7 = icmp ult i64 %4, %6
  br i1 %7, label %.lr.ph, label %._crit_edge

.lr.ph:                                           ; preds = %1, %.lr.ph
  %.05 = phi i64 [ %12, %.lr.ph ], [ %4, %1 ]
  %8 = load ptr, ptr %2, align 8
  %9 = tail call noundef ptr @_ZNK9EdgeQueue10element_atEm(ptr noundef nonnull align 8 dereferenceable(40) %8, i64 noundef %.05) #12
  %10 = getelementptr inbounds i8, ptr %9, i64 8
  %.sroa.0.0.copyload.i = load i64, ptr %10, align 8
  %11 = tail call noundef ptr @_ZNK4Edge7pointeeEv(ptr noundef nonnull align 8 dereferenceable(16) %9) #12
  tail call void @_ZN10BFSClosure12closure_implE13UnifiedOopRefP7oopDesc(ptr noundef nonnull align 8 dereferenceable(81) %0, i64 %.sroa.0.0.copyload.i, ptr noundef %11)
  %12 = add nuw i64 %.05, 1
  %13 = load ptr, ptr %2, align 8
  %14 = tail call noundef i64 @_ZNK9EdgeQueue3topEv(ptr noundef nonnull align 8 dereferenceable(40) %13) #12
  %15 = icmp ult i64 %12, %14
  br i1 %15, label %.lr.ph, label %._crit_edge, !llvm.loop !6

._crit_edge:                                      ; preds = %.lr.ph, %1
  ret void
}